target datalayout = "e-m:e-p270:32:32-p271:32:32-p272:64:64-i64:64-i128:128-f80:128-n8:16:32:64-S128"
target triple = "x86_64-pc-linux-gnu"

%class.btMultiBodyConstraint = type { ptr, ptr, ptr, i32, i32, i32, i32, i32, i32, i32, i8, i32, float, %class.btAlignedObjectArray }
%class.btAlignedObjectArray = type <{ [4 x i8], i32, i32, [4 x i8], ptr, i8, [7 x i8] }>

; Function Attrs: inlinehint mustprogress nounwind uwtable
define linkonce_odr dso_local void @_ZN20btAlignedObjectArrayIfE4initEv(ptr noundef nonnull align 8 dereferenceable(25) %0) #6 comdat align 2 {
  %2 = alloca ptr, align 8
  store ptr %0, ptr %2, align 8, !tbaa !38
  %3 = load ptr, ptr %2, align 8
  %4 = getelementptr inbounds nuw %class.btAlignedObjectArray, ptr %3, i32 0, i32 5
  store i8 1, ptr %4, align 8, !tbaa !139
  %5 = getelementptr inbounds nuw %class.btAlignedObjectArray, ptr %3, i32 0, i32 4
  store ptr null, ptr %5, align 8, !tbaa !62
  %6 = getelementptr inbounds nuw %class.btAlignedObjectArray, ptr %3, i32 0, i32 1
  store i32 0, ptr %6, align 4, !tbaa !64
  %7 = getelementptr inbounds nuw %class.btAlignedObjectArray, ptr %3, i32 0, i32 2
  store i32 0, ptr %7, align 8, !tbaa !140
  ret void
}

; Function Attrs: mustprogress nounwind uwtable
define linkonce_odr dso_local void @_ZN18btAlignedAllocatorIfLj16EEC2Ev(ptr noundef nonnull align 1 dereferenceable(1) %0) unnamed_addr #1 comdat align 2 {
  %2 = alloca ptr, align 8
  store ptr %0, ptr %2, align 8, !tbaa !137
  ret void
}

; Function Attrs: mustprogress uwtable
define linkonce_odr dso_local void @_ZN20btAlignedObjectArrayIfEC2Ev(ptr noundef nonnull align 8 dereferenceable(25) %0) unnamed_addr #2 comdat align 2 {
  %2 = alloca ptr, align 8
  store ptr %0, ptr %2, align 8, !tbaa !38
  %3 = load ptr, ptr %2, align 8
  call void @_ZN18btAlignedAllocatorIfLj16EEC2Ev(ptr noundef nonnull align 1 dereferenceable(1) %3)
  call void @_ZN20btAlignedObjectArrayIfE4initEv(ptr noundef nonnull align 8 dereferenceable(25) %3)
  ret void
}

; Function Attrs: mustprogress uwtable
define dso_local void @_ZN21btMultiBodyConstraintC2EP11btMultiBodyS1_iiibi(ptr noundef nonnull align 8 dereferenceable(96) %0, ptr noundef %1, ptr noundef %2, i32 noundef %3, i32 noundef %4, i32 noundef %5, i1 noundef zeroext %6, i32 noundef %7) unnamed_addr #2 align 2 {
  %9 = alloca ptr, align 8
  %10 = alloca ptr, align 8
  %11 = alloca ptr, align 8
  %12 = alloca i32, align 4
  %13 = alloca i32, align 4
  %14 = alloca i32, align 4
  %15 = alloca i8, align 1
  %16 = alloca i32, align 4
  store ptr %0, ptr %9, align 8, !tbaa !12
  store ptr %1, ptr %10, align 8, !tbaa !14
  store ptr %2, ptr %11, align 8, !tbaa !14
  store i32 %3, ptr %12, align 4, !tbaa !9
  store i32 %4, ptr %13, align 4, !tbaa !9
  store i32 %5, ptr %14, align 4, !tbaa !9
  %17 = zext i1 %6 to i8
  store i8 %17, ptr %15, align 1, !tbaa !16
  store i32 %7, ptr %16, align 4, !tbaa !9
  %18 = load ptr, ptr %9, align 8
  store ptr getelementptr inbounds inrange(-16, 104) ({ [15 x ptr] }, ptr @_ZTV21btMultiBodyConstraint, i32 0, i32 0, i32 2), ptr %18, align 8, !tbaa !18
  %19 = getelementptr inbounds nuw %class.btMultiBodyConstraint, ptr %18, i32 0, i32 1
  %20 = load ptr, ptr %10, align 8, !tbaa !14
  store ptr %20, ptr %19, align 8, !tbaa !20
  %21 = getelementptr inbounds nuw %class.btMultiBodyConstraint, ptr %18, i32 0, i32 2
  %22 = load ptr, ptr %11, align 8, !tbaa !14
  store ptr %22, ptr %21, align 8, !tbaa !26
  %23 = getelementptr inbounds nuw %class.btMultiBodyConstraint, ptr %18, i32 0, i32 3
  %24 = load i32, ptr %12, align 4, !tbaa !9
  store i32 %24, ptr %23, align 8, !tbaa !27
  %25 = getelementptr inbounds nuw %class.btMultiBodyConstraint, ptr %18, i32 0, i32 4
  %26 = load i32, ptr %13, align 4, !tbaa !9
  store i32 %26, ptr %25, align 4, !tbaa !28
  %27 = getelementptr inbounds nuw %class.btMultiBodyConstraint, ptr %18, i32 0, i32 5
  %28 = load i32, ptr %16, align 4, !tbaa !9
  store i32 %28, ptr %27, align 8, !tbaa !29
  %29 = getelementptr inbounds nuw %class.btMultiBodyConstraint, ptr %18, i32 0, i32 6
  %30 = load i32, ptr %14, align 4, !tbaa !9
  store i32 %30, ptr %29, align 4, !tbaa !30
  %31 = getelementptr inbounds nuw %class.btMultiBodyConstraint, ptr %18, i32 0, i32 7
  store i32 0, ptr %31, align 8, !tbaa !31
  %32 = getelementptr inbounds nuw %class.btMultiBodyConstraint, ptr %18, i32 0, i32 8
  store i32 0, ptr %32, align 4, !tbaa !32
  %33 = getelementptr inbounds nuw %class.btMultiBodyConstraint, ptr %18, i32 0, i32 10
  %34 = load i8, ptr %15, align 1, !tbaa !16, !range !33, !noundef !34
  %35 = trunc i8 %34 to i1
  %36 = zext i1 %35 to i8
  store i8 %36, ptr %33, align 4, !tbaa !35
  %37 = getelementptr inbounds nuw %class.btMultiBodyConstraint, ptr %18, i32 0, i32 11
  store i32 -1, ptr %37, align 8, !tbaa !36
  %38 = getelementptr inbounds nuw %class.btMultiBodyConstraint, ptr %18, i32 0, i32 12
  store float 1.000000e+02, ptr %38, align 4, !tbaa !37
  %39 = getelementptr inbounds nuw %class.btMultiBodyConstraint, ptr %18, i32 0, i32 13
  call void @_ZN20btAlignedObjectArrayIfEC2Ev(ptr noundef nonnull align 8 dereferenceable(25) %39)
  ret void
}