; Function Attrs: mustprogress nofree norecurse nosync nounwind willreturn memory(argmem: write) uwtable
define dso_local void @_ZN21btMultiBodyConstraintC2EP11btMultiBodyS1_iiibi(ptr noundef nonnull writeonly align 8 captures(none) dereferenceable(96) initializes((0, 48), (52, 53), (56, 64), (68, 76), (80, 89)) %0, ptr noundef %1, ptr noundef %2, i32 noundef %3, i32 noundef %4, i32 noundef %5, i1 noundef zeroext %6, i32 noundef %7) unnamed_addr #0 align 2 {
  %9 = zext i1 %6 to i8
  store ptr getelementptr inbounds nuw inrange(-16, 104) (i8, ptr @_ZTV21btMultiBodyConstraint, i64 16), ptr %0, align 8, !tbaa !4
  %10 = getelementptr inbounds nuw i8, ptr %0, i64 8
  store ptr %1, ptr %10, align 8, !tbaa !7
  %11 = getelementptr inbounds nuw i8, ptr %0, i64 16
  store ptr %2, ptr %11, align 8, !tbaa !18
  %12 = getelementptr inbounds nuw i8, ptr %0, i64 24
  store i32 %3, ptr %12, align 8, !tbaa !19
  %13 = getelementptr inbounds nuw i8, ptr %0, i64 28
  store i32 %4, ptr %13, align 4, !tbaa !20
  %14 = getelementptr inbounds nuw i8, ptr %0, i64 32
  store i32 %7, ptr %14, align 8, !tbaa !21
  %15 = getelementptr inbounds nuw i8, ptr %0, i64 36
  store i32 %5, ptr %15, align 4, !tbaa !22
  %16 = getelementptr inbounds nuw i8, ptr %0, i64 40
  store i32 0, ptr %16, align 8, !tbaa !23
  %17 = getelementptr inbounds nuw i8, ptr %0, i64 44
  store i32 0, ptr %17, align 4, !tbaa !24
  %18 = getelementptr inbounds nuw i8, ptr %0, i64 52
  store i8 %9, ptr %18, align 4, !tbaa !25
  %19 = getelementptr inbounds nuw i8, ptr %0, i64 56
  store i32 -1, ptr %19, align 8, !tbaa !26
  %20 = getelementptr inbounds nuw i8, ptr %0, i64 60
  store float 1.000000e+02, ptr %20, align 4, !tbaa !27
  %21 = getelementptr inbounds nuw i8, ptr %0, i64 88
  store i8 1, ptr %21, align 8, !tbaa !28
  %22 = getelementptr inbounds nuw i8, ptr %0, i64 80
  store ptr null, ptr %22, align 8, !tbaa !29
  %23 = getelementptr inbounds nuw i8, ptr %0, i64 68
  store i32 0, ptr %23, align 4, !tbaa !30
  %24 = getelementptr inbounds nuw i8, ptr %0, i64 72
  store i32 0, ptr %24, align 8, !tbaa !31
  ret void
}